target datalayout = "e-m:e-p270:32:32-p271:32:32-p272:64:64-i64:64-i128:128-f80:128-n8:16:32:64-S128"
target triple = "x86_64-pc-linux-gnu"

%struct.RString = type { %struct.RBasic, i64, %union.anon }
%struct.RBasic = type { i64, i64 }
%union.anon = type { %struct.anon }
%struct.anon = type { ptr, %union.anon.0 }
%union.anon.0 = type { i64 }

@rb_cString = dso_local global i64 0, align 8
@ruby_current_ec = external thread_local global ptr, align 8
@rb_str_buf_cat = dso_local alias i64 (i64, ptr, i64), ptr @rb_str_cat

; Function Attrs: inlinehint nounwind sspstrong uwtable
define internal ptr @rb_current_execution_context(i1 noundef zeroext %0) #3 {
  %2 = alloca i8, align 1
  %3 = alloca ptr, align 8
  %4 = zext i1 %0 to i8
  store i8 %4, ptr %2, align 1, !tbaa !29
  call void @llvm.lifetime.start.p0(i64 8, ptr %3) #29
  %5 = call align 8 ptr @llvm.threadlocal.address.p0(ptr align 8 @ruby_current_ec)
  %6 = load ptr, ptr %5, align 8, !tbaa !69
  store ptr %6, ptr %3, align 8, !tbaa !69
  %7 = load ptr, ptr %3, align 8, !tbaa !69
  call void @llvm.lifetime.end.p0(i64 8, ptr %3) #29
  ret ptr %7
}

; Function Attrs: inlinehint nounwind sspstrong uwtable
define internal i64 @rb_str_embed_size(i64 noundef %0) #3 {
  %2 = alloca i64, align 8
  store i64 %0, ptr %2, align 8, !tbaa !7
  %3 = load i64, ptr %2, align 8, !tbaa !7
  %4 = add i64 24, %3
  ret i64 %4
}

; Function Attrs: inlinehint nounwind sspstrong uwtable
define internal i64 @str_alloc_heap(i64 noundef %0) #3 {
  %2 = alloca i64, align 8
  %3 = alloca ptr, align 8
  store i64 %0, ptr %2, align 8, !tbaa !7
  call void @llvm.lifetime.start.p0(i64 8, ptr %3) #29
  %4 = call ptr @rb_current_execution_context(i1 noundef zeroext true)
  %5 = load i64, ptr %2, align 8, !tbaa !7
  %6 = call i64 @rb_wb_protected_newobj_of(ptr noundef %4, i64 noundef %5, i64 noundef 8197, i64 noundef 40)
  %7 = inttoptr i64 %6 to ptr
  store ptr %7, ptr %3, align 8, !tbaa !41
  %8 = load ptr, ptr %3, align 8, !tbaa !41
  %9 = ptrtoint ptr %8 to i64
  call void @llvm.lifetime.end.p0(i64 8, ptr %3) #29
  ret i64 %9
}

; Function Attrs: inlinehint nounwind sspstrong uwtable
define internal i64 @str_alloc_embed(i64 noundef %0, i64 noundef %1) #3 {
  %3 = alloca i64, align 8
  %4 = alloca i64, align 8
  %5 = alloca i64, align 8
  %6 = alloca ptr, align 8
  store i64 %0, ptr %3, align 8, !tbaa !7
  store i64 %1, ptr %4, align 8, !tbaa !7
  call void @llvm.lifetime.start.p0(i64 8, ptr %5) #29
  %7 = load i64, ptr %4, align 8, !tbaa !7
  %8 = call i64 @rb_str_embed_size(i64 noundef %7)
  store i64 %8, ptr %5, align 8, !tbaa !7
  call void @llvm.lifetime.start.p0(i64 8, ptr %6) #29
  %9 = call ptr @rb_current_execution_context(i1 noundef zeroext true)
  %10 = load i64, ptr %3, align 8, !tbaa !7
  %11 = load i64, ptr %5, align 8, !tbaa !7
  %12 = call i64 @rb_wb_protected_newobj_of(ptr noundef %9, i64 noundef %10, i64 noundef 5, i64 noundef %11)
  %13 = inttoptr i64 %12 to ptr
  store ptr %13, ptr %6, align 8, !tbaa !41
  %14 = load ptr, ptr %6, align 8, !tbaa !41
  %15 = ptrtoint ptr %14 to i64
  call void @llvm.lifetime.end.p0(i64 8, ptr %6) #29
  call void @llvm.lifetime.end.p0(i64 8, ptr %5) #29
  ret i64 %15
}

; Function Attrs: inlinehint nounwind sspstrong uwtable
define internal zeroext i1 @STR_EMBEDDABLE_P(i64 noundef %0, i64 noundef %1) #3 {
  %3 = alloca i64, align 8
  %4 = alloca i64, align 8
  store i64 %0, ptr %3, align 8, !tbaa !7
  store i64 %1, ptr %4, align 8, !tbaa !7
  %5 = load i64, ptr %3, align 8, !tbaa !7
  %6 = load i64, ptr %4, align 8, !tbaa !7
  %7 = add i64 %5, %6
  %8 = call i64 @rb_str_embed_size(i64 noundef %7)
  %9 = call zeroext i1 @rb_gc_size_allocatable_p(i64 noundef %8)
  ret i1 %9
}

; Function Attrs: nounwind sspstrong uwtable
define dso_local i64 @rb_str_buf_new(i64 noundef %0) #0 {
  %2 = alloca i64, align 8
  %3 = alloca i64, align 8
  %4 = alloca i64, align 8
  store i64 %0, ptr %3, align 8, !tbaa !7
  %5 = load i64, ptr %3, align 8, !tbaa !7
  %6 = call zeroext i1 @STR_EMBEDDABLE_P(i64 noundef %5, i64 noundef 1)
  br i1 %6, label %7, label %12

7:                                                ; preds = %1
  %8 = load i64, ptr @rb_cString, align 8, !tbaa !7
  %9 = load i64, ptr %3, align 8, !tbaa !7
  %10 = add i64 %9, 1
  %11 = call i64 @str_alloc_embed(i64 noundef %8, i64 noundef %10)
  store i64 %11, ptr %2, align 8
  br label %34

12:                                               ; preds = %1
  call void @llvm.lifetime.start.p0(i64 8, ptr %4) #29
  %13 = load i64, ptr @rb_cString, align 8, !tbaa !7
  %14 = call i64 @str_alloc_heap(i64 noundef %13)
  store i64 %14, ptr %4, align 8, !tbaa !7
  %15 = load i64, ptr %3, align 8, !tbaa !7
  %16 = load i64, ptr %4, align 8, !tbaa !7
  %17 = inttoptr i64 %16 to ptr
  %18 = getelementptr inbounds nuw %struct.RString, ptr %17, i32 0, i32 2
  %19 = getelementptr inbounds nuw %struct.anon, ptr %18, i32 0, i32 1
  store i64 %15, ptr %19, align 8, !tbaa !14
  %20 = load i64, ptr %3, align 8, !tbaa !7
  %21 = add i64 %20, 1
  %22 = call noalias nonnull ptr @ruby_xmalloc2(i64 noundef %21, i64 noundef 1) #36
  %23 = load i64, ptr %4, align 8, !tbaa !7
  %24 = inttoptr i64 %23 to ptr
  %25 = getelementptr inbounds nuw %struct.RString, ptr %24, i32 0, i32 2
  %26 = getelementptr inbounds nuw %struct.anon, ptr %25, i32 0, i32 0
  store ptr %22, ptr %26, align 8, !tbaa !14
  %27 = load i64, ptr %4, align 8, !tbaa !7
  %28 = inttoptr i64 %27 to ptr
  %29 = getelementptr inbounds nuw %struct.RString, ptr %28, i32 0, i32 2
  %30 = getelementptr inbounds nuw %struct.anon, ptr %29, i32 0, i32 0
  %31 = load ptr, ptr %30, align 8, !tbaa !14
  %32 = getelementptr i8, ptr %31, i64 0
  store i8 0, ptr %32, align 1, !tbaa !14
  %33 = load i64, ptr %4, align 8, !tbaa !7
  store i64 %33, ptr %2, align 8
  call void @llvm.lifetime.end.p0(i64 8, ptr %4) #29
  br label %34

34:                                               ; preds = %12, %7
  %35 = load i64, ptr %2, align 8
  ret i64 %35
}

; Function Attrs: nounwind sspstrong uwtable
define dso_local i64 @rb_str_buf_new_cstr(ptr noundef nonnull %0) #0 {
  %2 = alloca ptr, align 8
  %3 = alloca i64, align 8
  %4 = alloca i64, align 8
  store ptr %0, ptr %2, align 8, !tbaa !24
  call void @llvm.lifetime.start.p0(i64 8, ptr %3) #29
  call void @llvm.lifetime.start.p0(i64 8, ptr %4) #29
  %5 = load ptr, ptr %2, align 8, !tbaa !24
  %6 = call i64 @strlen(ptr noundef %5) #28
  store i64 %6, ptr %4, align 8, !tbaa !7
  %7 = load i64, ptr %4, align 8, !tbaa !7
  %8 = call i64 @rb_str_buf_new(i64 noundef %7)
  store i64 %8, ptr %3, align 8, !tbaa !7
  %9 = load i64, ptr %3, align 8, !tbaa !7
  %10 = load ptr, ptr %2, align 8, !tbaa !24
  %11 = load i64, ptr %4, align 8, !tbaa !7
  %12 = call i64 @rb_str_buf_cat(i64 noundef %9, ptr noundef %10, i64 noundef %11)
  %13 = load i64, ptr %3, align 8, !tbaa !7
  call void @llvm.lifetime.end.p0(i64 8, ptr %4) #29
  call void @llvm.lifetime.end.p0(i64 8, ptr %3) #29
  ret i64 %13
}