; Function Attrs: nounwind sspstrong uwtable
define dso_local i64 @rb_str_buf_new_cstr(ptr noundef nonnull %0) local_unnamed_addr #1 {
  %2 = tail call i64 @strlen(ptr noundef nonnull dereferenceable(1) %0) #31
  %3 = add i64 %2, 25
  %4 = tail call zeroext i1 @rb_gc_size_allocatable_p(i64 noundef %3) #29
  %5 = load i64, ptr @rb_cString, align 8, !tbaa !26
  %6 = tail call align 8 ptr @llvm.threadlocal.address.p0(ptr align 8 @ruby_current_ec)
  %7 = load ptr, ptr %6, align 8, !tbaa !66
  br i1 %4, label %8, label %10

8:                                                ; preds = %1
  %9 = tail call i64 @rb_wb_protected_newobj_of(ptr noundef %7, i64 noundef %5, i64 noundef 5, i64 noundef %3) #29
  br label %rb_str_buf_new.exit

10:                                               ; preds = %1
  %11 = tail call i64 @rb_wb_protected_newobj_of(ptr noundef %7, i64 noundef %5, i64 noundef 8197, i64 noundef 40) #29
  %12 = inttoptr i64 %11 to ptr
  %13 = getelementptr inbounds nuw i8, ptr %12, i64 24
  %14 = getelementptr inbounds nuw i8, ptr %12, i64 32
  store i64 %2, ptr %14, align 8, !tbaa !19
  %15 = add i64 %2, 1
  %16 = tail call noalias nonnull ptr @ruby_xmalloc2(i64 noundef %15, i64 noundef 1) #34
  store ptr %16, ptr %13, align 8, !tbaa !19
  store i8 0, ptr %16, align 1, !tbaa !19
  br label %rb_str_buf_new.exit

rb_str_buf_new.exit:                              ; preds = %8, %10
  %.0.i = phi i64 [ %9, %8 ], [ %11, %10 ]
  %17 = icmp eq i64 %2, 0
  br i1 %17, label %rb_str_cat.exit, label %18

18:                                               ; preds = %rb_str_buf_new.exit
  %19 = icmp slt i64 %2, 0
  br i1 %19, label %20, label %22

20:                                               ; preds = %18
  %21 = load i64, ptr @rb_eArgError, align 8, !tbaa !26
  tail call void (i64, ptr, ...) @rb_raise(i64 noundef %21, ptr noundef nonnull @.str.18) #32
  unreachable

22:                                               ; preds = %18
  %23 = tail call fastcc i64 @str_buf_cat4(i64 noundef %.0.i, ptr noundef nonnull %0, i64 noundef %2, i1 noundef zeroext false)
  br label %rb_str_cat.exit

rb_str_cat.exit:                                  ; preds = %rb_str_buf_new.exit, %22
  ret i64 %.0.i
}